target datalayout = "e-m:e-p270:32:32-p271:32:32-p272:64:64-i64:64-i128:128-f80:128-n8:16:32:64-S128"
target triple = "x86_64-unknown-linux-gnu"

%"class.OpenImageIO_v2_6_0::FitsInput" = type { %"class.OpenImageIO_v2_6_0::ImageInput", ptr, %"class.std::__cxx11::basic_string", i32, i32, i32, %"class.std::vector.16", %struct._G_fpos_t, %"class.std::map", %"class.std::vector.25", %"class.std::__cxx11::basic_string", %"class.std::__cxx11::basic_string", %"class.std::__cxx11::basic_string", %"class.std::__cxx11::basic_string" }
%"class.OpenImageIO_v2_6_0::ImageInput" = type { ptr, %"class.OpenImageIO_v2_6_0::ImageSpec", %"class.std::unique_ptr" }
%"class.OpenImageIO_v2_6_0::ImageSpec" = type { i32, i32, i32, i32, i32, i32, i32, i32, i32, i32, i32, i32, i32, i32, i32, i32, %"struct.OpenImageIO_v2_6_0::TypeDesc", %"class.std::vector", %"class.std::vector.0", i32, i32, i8, %"class.OpenImageIO_v2_6_0::ParamValueList" }
%"struct.OpenImageIO_v2_6_0::TypeDesc" = type { i8, i8, i8, i8, i32 }
%"class.std::vector" = type { %"struct.std::_Vector_base" }
%"struct.std::_Vector_base" = type { %"struct.std::_Vector_base<OpenImageIO_v2_6_0::TypeDesc, std::allocator<OpenImageIO_v2_6_0::TypeDesc>>::_Vector_impl" }
%"struct.std::_Vector_base<OpenImageIO_v2_6_0::TypeDesc, std::allocator<OpenImageIO_v2_6_0::TypeDesc>>::_Vector_impl" = type { %"struct.std::_Vector_base<OpenImageIO_v2_6_0::TypeDesc, std::allocator<OpenImageIO_v2_6_0::TypeDesc>>::_Vector_impl_data" }
%"struct.std::_Vector_base<OpenImageIO_v2_6_0::TypeDesc, std::allocator<OpenImageIO_v2_6_0::TypeDesc>>::_Vector_impl_data" = type { ptr, ptr, ptr }
%"class.std::vector.0" = type { %"struct.std::_Vector_base.1" }
%"struct.std::_Vector_base.1" = type { %"struct.std::_Vector_base<std::__cxx11::basic_string<char>, std::allocator<std::__cxx11::basic_string<char>>>::_Vector_impl" }
%"struct.std::_Vector_base<std::__cxx11::basic_string<char>, std::allocator<std::__cxx11::basic_string<char>>>::_Vector_impl" = type { %"struct.std::_Vector_base<std::__cxx11::basic_string<char>, std::allocator<std::__cxx11::basic_string<char>>>::_Vector_impl_data" }
%"struct.std::_Vector_base<std::__cxx11::basic_string<char>, std::allocator<std::__cxx11::basic_string<char>>>::_Vector_impl_data" = type { ptr, ptr, ptr }
%"class.OpenImageIO_v2_6_0::ParamValueList" = type { %"class.std::vector.5" }
%"class.std::vector.5" = type { %"struct.std::_Vector_base.6" }
%"struct.std::_Vector_base.6" = type { %"struct.std::_Vector_base<OpenImageIO_v2_6_0::ParamValue, std::allocator<OpenImageIO_v2_6_0::ParamValue>>::_Vector_impl" }
%"struct.std::_Vector_base<OpenImageIO_v2_6_0::ParamValue, std::allocator<OpenImageIO_v2_6_0::ParamValue>>::_Vector_impl" = type { %"struct.std::_Vector_base<OpenImageIO_v2_6_0::ParamValue, std::allocator<OpenImageIO_v2_6_0::ParamValue>>::_Vector_impl_data" }
%"struct.std::_Vector_base<OpenImageIO_v2_6_0::ParamValue, std::allocator<OpenImageIO_v2_6_0::ParamValue>>::_Vector_impl_data" = type { ptr, ptr, ptr }
%"class.std::unique_ptr" = type { %"struct.std::__uniq_ptr_data" }
%"struct.std::__uniq_ptr_data" = type { %"class.std::__uniq_ptr_impl" }
%"class.std::__uniq_ptr_impl" = type { %"class.std::tuple" }
%"class.std::tuple" = type { %"struct.std::_Tuple_impl" }
%"struct.std::_Tuple_impl" = type { %"struct.std::_Tuple_impl.10", %"struct.std::_Head_base.11" }
%"struct.std::_Tuple_impl.10" = type { %"struct.std::_Head_base" }
%"struct.std::_Head_base" = type { ptr }
%"struct.std::_Head_base.11" = type { ptr }
%"class.std::vector.16" = type { %"struct.std::_Vector_base.17" }
%"struct.std::_Vector_base.17" = type { %"struct.std::_Vector_base<int, std::allocator<int>>::_Vector_impl" }
%"struct.std::_Vector_base<int, std::allocator<int>>::_Vector_impl" = type { %"struct.std::_Vector_base<int, std::allocator<int>>::_Vector_impl_data" }
%"struct.std::_Vector_base<int, std::allocator<int>>::_Vector_impl_data" = type { ptr, ptr, ptr }
%struct._G_fpos_t = type { i64, %struct.__mbstate_t }
%struct.__mbstate_t = type { i32, %union.anon.21 }
%union.anon.21 = type { i32 }
%"class.std::map" = type { %"class.std::_Rb_tree" }
%"class.std::_Rb_tree" = type { %"struct.std::_Rb_tree<std::__cxx11::basic_string<char>, std::pair<const std::__cxx11::basic_string<char>, int>, std::_Select1st<std::pair<const std::__cxx11::basic_string<char>, int>>, std::less<std::__cxx11::basic_string<char>>>::_Rb_tree_impl" }
%"struct.std::_Rb_tree<std::__cxx11::basic_string<char>, std::pair<const std::__cxx11::basic_string<char>, int>, std::_Select1st<std::pair<const std::__cxx11::basic_string<char>, int>>, std::less<std::__cxx11::basic_string<char>>>::_Rb_tree_impl" = type { %"struct.std::_Rb_tree_key_compare", %"struct.std::_Rb_tree_header" }
%"struct.std::_Rb_tree_key_compare" = type { %"struct.std::less" }
%"struct.std::less" = type { i8 }
%"struct.std::_Rb_tree_header" = type { %"struct.std::_Rb_tree_node_base", i64 }
%"struct.std::_Rb_tree_node_base" = type { i32, ptr, ptr, ptr }
%"class.std::vector.25" = type { %"struct.std::_Vector_base.26" }
%"struct.std::_Vector_base.26" = type { %"struct.std::_Vector_base<OpenImageIO_v2_6_0::fits_pvt::Subimage, std::allocator<OpenImageIO_v2_6_0::fits_pvt::Subimage>>::_Vector_impl" }
%"struct.std::_Vector_base<OpenImageIO_v2_6_0::fits_pvt::Subimage, std::allocator<OpenImageIO_v2_6_0::fits_pvt::Subimage>>::_Vector_impl" = type { %"struct.std::_Vector_base<OpenImageIO_v2_6_0::fits_pvt::Subimage, std::allocator<OpenImageIO_v2_6_0::fits_pvt::Subimage>>::_Vector_impl_data" }
%"struct.std::_Vector_base<OpenImageIO_v2_6_0::fits_pvt::Subimage, std::allocator<OpenImageIO_v2_6_0::fits_pvt::Subimage>>::_Vector_impl_data" = type { ptr, ptr, ptr }
%"class.std::__cxx11::basic_string" = type { %"struct.std::__cxx11::basic_string<char>::_Alloc_hider", i64, %union.anon.15 }
%"struct.std::__cxx11::basic_string<char>::_Alloc_hider" = type { ptr }
%union.anon.15 = type { i64, [8 x i8] }
%"struct.OpenImageIO_v2_6_0::fits_pvt::Subimage" = type { i32, i64 }

; Function Attrs: mustprogress nounwind uwtable
define linkonce_odr hidden noundef nonnull align 8 dereferenceable(16) ptr @_ZNSt6vectorIN18OpenImageIO_v2_6_08fits_pvt8SubimageESaIS2_EEixEm(ptr noundef nonnull align 8 dereferenceable(24) %this, i64 noundef %__n) #4 comdat align 2 {
entry:
  %this.addr = alloca ptr, align 8
  %__n.addr = alloca i64, align 8
  store ptr %this, ptr %this.addr, align 8
  store i64 %__n, ptr %__n.addr, align 8
  %this1 = load ptr, ptr %this.addr, align 8
  %_M_impl = getelementptr inbounds %"struct.std::_Vector_base.26", ptr %this1, i32 0, i32 0
  %_M_start = getelementptr inbounds %"struct.std::_Vector_base<OpenImageIO_v2_6_0::fits_pvt::Subimage, std::allocator<OpenImageIO_v2_6_0::fits_pvt::Subimage>>::_Vector_impl_data", ptr %_M_impl, i32 0, i32 0
  %0 = load ptr, ptr %_M_start, align 8
  %1 = load i64, ptr %__n.addr, align 8
  %add.ptr = getelementptr inbounds %"struct.OpenImageIO_v2_6_0::fits_pvt::Subimage", ptr %0, i64 %1
  ret ptr %add.ptr
}

; Function Attrs: mustprogress nounwind uwtable
define linkonce_odr hidden noundef i64 @_ZNKSt6vectorIN18OpenImageIO_v2_6_08fits_pvt8SubimageESaIS2_EE4sizeEv(ptr noundef nonnull align 8 dereferenceable(24) %this) #4 comdat align 2 {
entry:
  %this.addr = alloca ptr, align 8
  store ptr %this, ptr %this.addr, align 8
  %this1 = load ptr, ptr %this.addr, align 8
  %_M_impl = getelementptr inbounds %"struct.std::_Vector_base.26", ptr %this1, i32 0, i32 0
  %_M_finish = getelementptr inbounds %"struct.std::_Vector_base<OpenImageIO_v2_6_0::fits_pvt::Subimage, std::allocator<OpenImageIO_v2_6_0::fits_pvt::Subimage>>::_Vector_impl_data", ptr %_M_impl, i32 0, i32 1
  %0 = load ptr, ptr %_M_finish, align 8
  %_M_impl2 = getelementptr inbounds %"struct.std::_Vector_base.26", ptr %this1, i32 0, i32 0
  %_M_start = getelementptr inbounds %"struct.std::_Vector_base<OpenImageIO_v2_6_0::fits_pvt::Subimage, std::allocator<OpenImageIO_v2_6_0::fits_pvt::Subimage>>::_Vector_impl_data", ptr %_M_impl2, i32 0, i32 0
  %1 = load ptr, ptr %_M_start, align 8
  %sub.ptr.lhs.cast = ptrtoint ptr %0 to i64
  %sub.ptr.rhs.cast = ptrtoint ptr %1 to i64
  %sub.ptr.sub = sub i64 %sub.ptr.lhs.cast, %sub.ptr.rhs.cast
  %sub.ptr.div = sdiv exact i64 %sub.ptr.sub, 16
  ret i64 %sub.ptr.div
}

; Function Attrs: mustprogress uwtable
define hidden noundef zeroext i1 @_ZN18OpenImageIO_v2_6_09FitsInput13seek_subimageEii(ptr noundef nonnull align 8 dereferenceable(480) %this, i32 noundef %subimage, i32 noundef %miplevel) unnamed_addr #6 align 2 {
entry:
  %retval = alloca i1, align 1
  %this.addr = alloca ptr, align 8
  %subimage.addr = alloca i32, align 4
  %miplevel.addr = alloca i32, align 4
  store ptr %this, ptr %this.addr, align 8
  store i32 %subimage, ptr %subimage.addr, align 4
  store i32 %miplevel, ptr %miplevel.addr, align 4
  %this1 = load ptr, ptr %this.addr, align 8
  %0 = load i32, ptr %miplevel.addr, align 4
  %cmp = icmp ne i32 %0, 0
  br i1 %cmp, label %if.then, label %if.end

if.then:                                          ; preds = %entry
  store i1 false, ptr %retval, align 1
  br label %return

if.end:                                           ; preds = %entry
  %1 = load i32, ptr %subimage.addr, align 4
  %cmp2 = icmp slt i32 %1, 0
  br i1 %cmp2, label %if.then4, label %lor.lhs.false

lor.lhs.false:                                    ; preds = %if.end
  %2 = load i32, ptr %subimage.addr, align 4
  %m_subimages = getelementptr inbounds %"class.OpenImageIO_v2_6_0::FitsInput", ptr %this1, i32 0, i32 9
  %call = call noundef i64 @_ZNKSt6vectorIN18OpenImageIO_v2_6_08fits_pvt8SubimageESaIS2_EE4sizeEv(ptr noundef nonnull align 8 dereferenceable(24) %m_subimages) #3
  %conv = trunc i64 %call to i32
  %cmp3 = icmp sge i32 %2, %conv
  br i1 %cmp3, label %if.then4, label %if.end5

if.then4:                                         ; preds = %lor.lhs.false, %if.end
  store i1 false, ptr %retval, align 1
  br label %return

if.end5:                                          ; preds = %lor.lhs.false
  %3 = load i32, ptr %subimage.addr, align 4
  %m_cur_subimage = getelementptr inbounds %"class.OpenImageIO_v2_6_0::FitsInput", ptr %this1, i32 0, i32 3
  %4 = load i32, ptr %m_cur_subimage, align 8
  %cmp6 = icmp eq i32 %3, %4
  br i1 %cmp6, label %if.then7, label %if.end8

if.then7:                                         ; preds = %if.end5
  store i1 true, ptr %retval, align 1
  br label %return

if.end8:                                          ; preds = %if.end5
  %5 = load i32, ptr %subimage.addr, align 4
  %m_cur_subimage9 = getelementptr inbounds %"class.OpenImageIO_v2_6_0::FitsInput", ptr %this1, i32 0, i32 3
  store i32 %5, ptr %m_cur_subimage9, align 8
  %m_fd = getelementptr inbounds %"class.OpenImageIO_v2_6_0::FitsInput", ptr %this1, i32 0, i32 1
  %6 = load ptr, ptr %m_fd, align 8
  %m_subimages10 = getelementptr inbounds %"class.OpenImageIO_v2_6_0::FitsInput", ptr %this1, i32 0, i32 9
  %m_cur_subimage11 = getelementptr inbounds %"class.OpenImageIO_v2_6_0::FitsInput", ptr %this1, i32 0, i32 3
  %7 = load i32, ptr %m_cur_subimage11, align 8
  %conv12 = sext i32 %7 to i64
  %call13 = call noundef nonnull align 8 dereferenceable(16) ptr @_ZNSt6vectorIN18OpenImageIO_v2_6_08fits_pvt8SubimageESaIS2_EEixEm(ptr noundef nonnull align 8 dereferenceable(24) %m_subimages10, i64 noundef %conv12) #3
  %offset = getelementptr inbounds %"struct.OpenImageIO_v2_6_0::fits_pvt::Subimage", ptr %call13, i32 0, i32 1
  %8 = load i64, ptr %offset, align 8
  %call14 = call i32 @fseek(ptr noundef %6, i64 noundef %8, i32 noundef 0)
  %call15 = call noundef zeroext i1 @_ZN18OpenImageIO_v2_6_09FitsInput13set_spec_infoEv(ptr noundef nonnull align 8 dereferenceable(480) %this1)
  br i1 %call15, label %if.end17, label %if.then16

if.then16:                                        ; preds = %if.end8
  store i1 false, ptr %retval, align 1
  br label %return

if.end17:                                         ; preds = %if.end8
  store i1 true, ptr %retval, align 1
  br label %return

return:                                           ; preds = %if.end17, %if.then16, %if.then7, %if.then4, %if.then
  %9 = load i1, ptr %retval, align 1
  ret i1 %9
}