; Function Attrs: mustprogress uwtable
define hidden noundef zeroext i1 @_ZN18OpenImageIO_v2_6_09FitsInput13seek_subimageEii(ptr noundef nonnull align 8 dereferenceable(480) %this, i32 noundef %subimage, i32 noundef %miplevel) unnamed_addr #6 align 2 {
entry:
  %cmp.not = icmp ne i32 %miplevel, 0
  %cmp2 = icmp slt i32 %subimage, 0
  %or.cond = or i1 %cmp2, %cmp.not
  br i1 %or.cond, label %return, label %lor.lhs.false

lor.lhs.false:                                    ; preds = %entry
  %m_subimages = getelementptr inbounds i8, ptr %this, i64 328
  %_M_finish.i = getelementptr inbounds i8, ptr %this, i64 336
  %0 = load ptr, ptr %_M_finish.i, align 8
  %1 = load ptr, ptr %m_subimages, align 8
  %sub.ptr.lhs.cast.i = ptrtoint ptr %0 to i64
  %sub.ptr.rhs.cast.i = ptrtoint ptr %1 to i64
  %sub.ptr.sub.i = sub i64 %sub.ptr.lhs.cast.i, %sub.ptr.rhs.cast.i
  %sub.ptr.div.i = lshr exact i64 %sub.ptr.sub.i, 4
  %conv = trunc i64 %sub.ptr.div.i to i32
  %cmp3.not = icmp sgt i32 %conv, %subimage
  br i1 %cmp3.not, label %if.end5, label %return

if.end5:                                          ; preds = %lor.lhs.false
  %m_cur_subimage = getelementptr inbounds i8, ptr %this, i64 224
  %2 = load i32, ptr %m_cur_subimage, align 8
  %cmp6 = icmp eq i32 %2, %subimage
  br i1 %cmp6, label %return, label %if.end8

if.end8:                                          ; preds = %if.end5
  store i32 %subimage, ptr %m_cur_subimage, align 8
  %m_fd = getelementptr inbounds i8, ptr %this, i64 184
  %3 = load ptr, ptr %m_fd, align 8
  %conv12 = zext nneg i32 %subimage to i64
  %offset = getelementptr inbounds %"struct.OpenImageIO_v2_6_0::fits_pvt::Subimage", ptr %1, i64 %conv12, i32 1
  %4 = load i64, ptr %offset, align 8
  %call14 = tail call i32 @fseek(ptr noundef %3, i64 noundef %4, i32 noundef 0)
  %call15 = tail call noundef zeroext i1 @_ZN18OpenImageIO_v2_6_09FitsInput13set_spec_infoEv(ptr noundef nonnull align 8 dereferenceable(480) %this)
  br label %return

return:                                           ; preds = %if.end8, %if.end5, %lor.lhs.false, %entry
  %retval.0 = phi i1 [ false, %entry ], [ false, %lor.lhs.false ], [ true, %if.end5 ], [ %call15, %if.end8 ]
  ret i1 %retval.0
}